target datalayout = "e-m:e-p270:32:32-p271:32:32-p272:64:64-i64:64-i128:128-f80:128-n8:16:32:64-S128"
target triple = "x86_64-pc-linux-gnu"

%"struct.cv::utils::trace::details::Region::LocationStaticStorage" = type { ptr, ptr, ptr, i32, i32 }
%"class.cv::utils::trace::details::Region" = type <{ ptr, i32, [4 x i8] }>
%union.Cv32suf = type { i32 }

@_ZZN2cv3hal12cpu_baseline6exp32fEPKfPfiE25__cv_trace_location_fn514 = internal constant %"struct.cv::utils::trace::details::Region::LocationStaticStorage" { ptr @_ZZN2cv3hal12cpu_baseline6exp32fEPKfPfiE31__cv_trace_location_extra_fn514, ptr @.str.12, ptr @.str.1, i32 514, i32 1 }, align 8

; Function Attrs: alwaysinline mustprogress nounwind uwtable
define internal noundef i32 @_ZL14_mm_cvtss_si32Dv4_f(<4 x float> noundef %0) #11 {
  %2 = alloca <4 x float>, align 16
  store <4 x float> %0, ptr %2, align 16, !tbaa !45
  %3 = load <4 x float>, ptr %2, align 16, !tbaa !45
  %4 = call i32 @llvm.x86.sse.cvtss2si(<4 x float> %3)
  ret i32 %4
}

; Function Attrs: alwaysinline mustprogress nounwind uwtable
define internal noundef <4 x float> @_ZL10_mm_set_ssf(float noundef %0) #11 {
  %2 = alloca float, align 4
  %3 = alloca <4 x float>, align 16
  store float %0, ptr %2, align 4, !tbaa !14
  %4 = load float, ptr %2, align 4, !tbaa !14
  %5 = insertelement <4 x float> poison, float %4, i32 0
  %6 = insertelement <4 x float> %5, float 0.000000e+00, i32 1
  %7 = insertelement <4 x float> %6, float 0.000000e+00, i32 2
  %8 = insertelement <4 x float> %7, float 0.000000e+00, i32 3
  store <4 x float> %8, ptr %3, align 16, !tbaa !45
  %9 = load <4 x float>, ptr %3, align 16, !tbaa !45
  ret <4 x float> %9
}

; Function Attrs: inlinehint mustprogress uwtable
define internal noundef i32 @_ZL7cvRoundf(float noundef %0) #10 {
  %2 = alloca float, align 4
  %3 = alloca <4 x float>, align 16
  store float %0, ptr %2, align 4, !tbaa !14
  call void @llvm.lifetime.start.p0(i64 16, ptr %3) #14
  %4 = load float, ptr %2, align 4, !tbaa !14
  %5 = call noundef <4 x float> @_ZL10_mm_set_ssf(float noundef %4)
  store <4 x float> %5, ptr %3, align 16, !tbaa !45
  %6 = load <4 x float>, ptr %3, align 16, !tbaa !45
  %7 = call noundef i32 @_ZL14_mm_cvtss_si32Dv4_f(<4 x float> noundef %6)
  call void @llvm.lifetime.end.p0(i64 16, ptr %3) #14
  ret i32 %7
}

; Function Attrs: inlinehint mustprogress uwtable
define internal noundef i32 @_ZN2cvL13saturate_castIiEET_f(float noundef %0) #6 {
  %2 = alloca float, align 4
  store float %0, ptr %2, align 4, !tbaa !14
  %3 = load float, ptr %2, align 4, !tbaa !14
  %4 = call noundef i32 @_ZL7cvRoundf(float noundef %3)
  ret i32 %4
}

; Function Attrs: inlinehint mustprogress nounwind uwtable
define linkonce_odr noundef nonnull align 4 dereferenceable(4) ptr @_ZSt3minIfERKT_S2_S2_(ptr noundef nonnull align 4 dereferenceable(4) %0, ptr noundef nonnull align 4 dereferenceable(4) %1) #3 comdat {
  %3 = alloca ptr, align 8
  %4 = alloca ptr, align 8
  %5 = alloca ptr, align 8
  store ptr %0, ptr %4, align 8, !tbaa !3
  store ptr %1, ptr %5, align 8, !tbaa !3
  %6 = load ptr, ptr %5, align 8, !tbaa !3
  %7 = load float, ptr %6, align 4, !tbaa !14
  %8 = load ptr, ptr %4, align 8, !tbaa !3
  %9 = load float, ptr %8, align 4, !tbaa !14
  %10 = fcmp olt float %7, %9
  br i1 %10, label %11, label %13

11:                                               ; preds = %2
  %12 = load ptr, ptr %5, align 8, !tbaa !3
  store ptr %12, ptr %3, align 8
  br label %15

13:                                               ; preds = %2
  %14 = load ptr, ptr %4, align 8, !tbaa !3
  store ptr %14, ptr %3, align 8
  br label %15

15:                                               ; preds = %13, %11
  %16 = load ptr, ptr %3, align 8
  ret ptr %16
}

; Function Attrs: inlinehint mustprogress nounwind uwtable
define linkonce_odr noundef nonnull align 4 dereferenceable(4) ptr @_ZSt3maxIfERKT_S2_S2_(ptr noundef nonnull align 4 dereferenceable(4) %0, ptr noundef nonnull align 4 dereferenceable(4) %1) #3 comdat {
  %3 = alloca ptr, align 8
  %4 = alloca ptr, align 8
  %5 = alloca ptr, align 8
  store ptr %0, ptr %4, align 8, !tbaa !3
  store ptr %1, ptr %5, align 8, !tbaa !3
  %6 = load ptr, ptr %4, align 8, !tbaa !3
  %7 = load float, ptr %6, align 4, !tbaa !14
  %8 = load ptr, ptr %5, align 8, !tbaa !3
  %9 = load float, ptr %8, align 4, !tbaa !14
  %10 = fcmp olt float %7, %9
  br i1 %10, label %11, label %13

11:                                               ; preds = %2
  %12 = load ptr, ptr %5, align 8, !tbaa !3
  store ptr %12, ptr %3, align 8
  br label %15

13:                                               ; preds = %2
  %14 = load ptr, ptr %4, align 8, !tbaa !3
  store ptr %14, ptr %3, align 8
  br label %15

15:                                               ; preds = %13, %11
  %16 = load ptr, ptr %3, align 8
  ret ptr %16
}

; Function Attrs: mustprogress uwtable
define hidden void @_ZN2cv3hal12cpu_baseline6exp32fEPKfPfi(ptr noundef %0, ptr noundef %1, i32 noundef %2) #0 personality ptr @__gxx_personality_v0 {
  %4 = alloca ptr, align 8
  %5 = alloca ptr, align 8
  %6 = alloca i32, align 4
  %7 = alloca %"class.cv::utils::trace::details::Region", align 8
  %8 = alloca ptr, align 8
  %9 = alloca ptr, align 8
  %10 = alloca i32, align 4
  %11 = alloca float, align 4
  %12 = alloca float, align 4
  %13 = alloca float, align 4
  %14 = alloca float, align 4
  %15 = alloca i32, align 4
  %16 = alloca ptr, align 8
  %17 = alloca float, align 4
  %18 = alloca float, align 4
  %19 = alloca float, align 4
  %20 = alloca float, align 4
  %21 = alloca %union.Cv32suf, align 4
  %22 = alloca i32, align 4
  %23 = alloca i32, align 4
  store ptr %0, ptr %4, align 8, !tbaa !3
  store ptr %1, ptr %5, align 8, !tbaa !3
  store i32 %2, ptr %6, align 4, !tbaa !8
  call void @llvm.lifetime.start.p0(i64 16, ptr %7) #14
  call void @_ZN2cv5utils5trace7details6RegionC1ERKNS3_21LocationStaticStorageE(ptr noundef nonnull align 8 dereferenceable(12) %7, ptr noundef nonnull align 8 dereferenceable(32) @_ZZN2cv3hal12cpu_baseline6exp32fEPKfPfiE25__cv_trace_location_fn514)
  call void @llvm.lifetime.start.p0(i64 8, ptr %8) #14
  %24 = invoke noundef ptr @_ZN2cv7details12getExpTab32fEv()
          to label %25 unwind label %93

25:                                               ; preds = %3
  store ptr %24, ptr %8, align 8, !tbaa !3
  call void @llvm.lifetime.start.p0(i64 4, ptr %11) #14
  store float 0x4059DA2740000000, ptr %11, align 4, !tbaa !14
  call void @llvm.lifetime.start.p0(i64 4, ptr %12) #14
  store float 0x4051EB5AC0000000, ptr %12, align 4, !tbaa !14
  call void @llvm.lifetime.start.p0(i64 4, ptr %13) #14
  store float 0x4038D76C80000000, ptr %13, align 4, !tbaa !14
  call void @llvm.lifetime.start.p0(i64 4, ptr %14) #14
  store float 0x4016F547A0000000, ptr %14, align 4, !tbaa !14
  call void @llvm.lifetime.start.p0(i64 4, ptr %15) #14
  store i32 0, ptr %15, align 4, !tbaa !8
  call void @llvm.lifetime.start.p0(i64 8, ptr %16) #14
  %26 = load ptr, ptr %4, align 8, !tbaa !3
  store ptr %26, ptr %16, align 8, !tbaa !43
  call void @llvm.lifetime.start.p0(i64 4, ptr %17) #14
  store float 0xC0A03EE220000000, ptr %17, align 4, !tbaa !14
  call void @llvm.lifetime.start.p0(i64 4, ptr %18) #14
  store float 0x40A03EE220000000, ptr %18, align 4, !tbaa !14
  call void @llvm.lifetime.start.p0(i64 4, ptr %19) #14
  store float 1.562500e-02, ptr %19, align 4, !tbaa !14
  br label %27

27:                                               ; preds = %90, %25
  %28 = load i32, ptr %15, align 4, !tbaa !8
  %29 = load i32, ptr %6, align 4, !tbaa !8
  %30 = icmp slt i32 %28, %29
  br i1 %30, label %31, label %106

31:                                               ; preds = %27
  call void @llvm.lifetime.start.p0(i64 4, ptr %20) #14
  %32 = load ptr, ptr %16, align 8, !tbaa !43
  %33 = load i32, ptr %15, align 4, !tbaa !8
  %34 = sext i32 %33 to i64
  %35 = getelementptr inbounds %union.Cv32suf, ptr %32, i64 %34
  %36 = load float, ptr %35, align 4, !tbaa !45
  store float %36, ptr %20, align 4, !tbaa !14
  %37 = invoke noundef nonnull align 4 dereferenceable(4) ptr @_ZSt3maxIfERKT_S2_S2_(ptr noundef nonnull align 4 dereferenceable(4) %20, ptr noundef nonnull align 4 dereferenceable(4) %17)
          to label %38 unwind label %97

38:                                               ; preds = %31
  %39 = invoke noundef nonnull align 4 dereferenceable(4) ptr @_ZSt3minIfERKT_S2_S2_(ptr noundef nonnull align 4 dereferenceable(4) %37, ptr noundef nonnull align 4 dereferenceable(4) %18)
          to label %40 unwind label %97

40:                                               ; preds = %38
  %41 = load float, ptr %39, align 4, !tbaa !14
  store float %41, ptr %20, align 4, !tbaa !14
  %42 = load float, ptr %20, align 4, !tbaa !14
  %43 = fmul float %42, 0x4057154760000000
  store float %43, ptr %20, align 4, !tbaa !14
  call void @llvm.lifetime.start.p0(i64 4, ptr %21) #14
  call void @llvm.lifetime.start.p0(i64 4, ptr %22) #14
  %44 = load float, ptr %20, align 4, !tbaa !14
  %45 = invoke noundef i32 @_ZN2cvL13saturate_castIiEET_f(float noundef %44)
          to label %46 unwind label %101

46:                                               ; preds = %40
  store i32 %45, ptr %22, align 4, !tbaa !8
  %47 = load float, ptr %20, align 4, !tbaa !14
  %48 = load i32, ptr %22, align 4, !tbaa !8
  %49 = sitofp i32 %48 to float
  %50 = fsub float %47, %49
  %51 = load float, ptr %19, align 4, !tbaa !14
  %52 = fmul float %50, %51
  store float %52, ptr %20, align 4, !tbaa !14
  call void @llvm.lifetime.start.p0(i64 4, ptr %23) #14
  %53 = load i32, ptr %22, align 4, !tbaa !8
  %54 = ashr i32 %53, 6
  %55 = add nsw i32 %54, 127
  store i32 %55, ptr %23, align 4, !tbaa !8
  %56 = load i32, ptr %23, align 4, !tbaa !8
  %57 = and i32 %56, -256
  %58 = icmp ne i32 %57, 0
  br i1 %58, label %61, label %59

59:                                               ; preds = %46
  %60 = load i32, ptr %23, align 4, !tbaa !8
  br label %65

61:                                               ; preds = %46
  %62 = load i32, ptr %23, align 4, !tbaa !8
  %63 = icmp slt i32 %62, 0
  %64 = select i1 %63, i32 0, i32 255
  br label %65

65:                                               ; preds = %61, %59
  %66 = phi i32 [ %60, %59 ], [ %64, %61 ]
  store i32 %66, ptr %23, align 4, !tbaa !8
  %67 = load i32, ptr %23, align 4, !tbaa !8
  %68 = shl i32 %67, 23
  store i32 %68, ptr %21, align 4, !tbaa !45
  %69 = load float, ptr %21, align 4, !tbaa !45
  %70 = load ptr, ptr %8, align 8, !tbaa !3
  %71 = load i32, ptr %22, align 4, !tbaa !8
  %72 = and i32 %71, 63
  %73 = sext i32 %72 to i64
  %74 = getelementptr inbounds float, ptr %70, i64 %73
  %75 = load float, ptr %74, align 4, !tbaa !14
  %76 = fmul float %69, %75
  %77 = load float, ptr %20, align 4, !tbaa !14
  %78 = fadd float %77, 0x4016F547A0000000
  %79 = load float, ptr %20, align 4, !tbaa !14
  %80 = call float @llvm.fmuladd.f32(float %78, float %79, float 0x4038D76C80000000)
  %81 = load float, ptr %20, align 4, !tbaa !14
  %82 = call float @llvm.fmuladd.f32(float %80, float %81, float 0x4051EB5AC0000000)
  %83 = load float, ptr %20, align 4, !tbaa !14
  %84 = call float @llvm.fmuladd.f32(float %82, float %83, float 0x4059DA2740000000)
  %85 = fmul float %76, %84
  %86 = load ptr, ptr %5, align 8, !tbaa !3
  %87 = load i32, ptr %15, align 4, !tbaa !8
  %88 = sext i32 %87 to i64
  %89 = getelementptr inbounds float, ptr %86, i64 %88
  store float %85, ptr %89, align 4, !tbaa !14
  call void @llvm.lifetime.end.p0(i64 4, ptr %23) #14
  call void @llvm.lifetime.end.p0(i64 4, ptr %22) #14
  call void @llvm.lifetime.end.p0(i64 4, ptr %21) #14
  call void @llvm.lifetime.end.p0(i64 4, ptr %20) #14
  br label %90

90:                                               ; preds = %65
  %91 = load i32, ptr %15, align 4, !tbaa !8
  %92 = add nsw i32 %91, 1
  store i32 %92, ptr %15, align 4, !tbaa !8
  br label %27, !llvm.loop !46

93:                                               ; preds = %3
  %94 = landingpad { ptr, i32 }
          cleanup
  %95 = extractvalue { ptr, i32 } %94, 0
  store ptr %95, ptr %9, align 8
  %96 = extractvalue { ptr, i32 } %94, 1
  store i32 %96, ptr %10, align 4
  br label %107

97:                                               ; preds = %38, %31
  %98 = landingpad { ptr, i32 }
          cleanup
  %99 = extractvalue { ptr, i32 } %98, 0
  store ptr %99, ptr %9, align 8
  %100 = extractvalue { ptr, i32 } %98, 1
  store i32 %100, ptr %10, align 4
  br label %105

101:                                              ; preds = %40
  %102 = landingpad { ptr, i32 }
          cleanup
  %103 = extractvalue { ptr, i32 } %102, 0
  store ptr %103, ptr %9, align 8
  %104 = extractvalue { ptr, i32 } %102, 1
  store i32 %104, ptr %10, align 4
  call void @llvm.lifetime.end.p0(i64 4, ptr %22) #14
  call void @llvm.lifetime.end.p0(i64 4, ptr %21) #14
  br label %105

105:                                              ; preds = %101, %97
  call void @llvm.lifetime.end.p0(i64 4, ptr %20) #14
  call void @llvm.lifetime.end.p0(i64 4, ptr %19) #14
  call void @llvm.lifetime.end.p0(i64 4, ptr %18) #14
  call void @llvm.lifetime.end.p0(i64 4, ptr %17) #14
  call void @llvm.lifetime.end.p0(i64 8, ptr %16) #14
  call void @llvm.lifetime.end.p0(i64 4, ptr %15) #14
  call void @llvm.lifetime.end.p0(i64 4, ptr %14) #14
  call void @llvm.lifetime.end.p0(i64 4, ptr %13) #14
  call void @llvm.lifetime.end.p0(i64 4, ptr %12) #14
  call void @llvm.lifetime.end.p0(i64 4, ptr %11) #14
  br label %107

106:                                              ; preds = %27
  call void @llvm.lifetime.end.p0(i64 4, ptr %19) #14
  call void @llvm.lifetime.end.p0(i64 4, ptr %18) #14
  call void @llvm.lifetime.end.p0(i64 4, ptr %17) #14
  call void @llvm.lifetime.end.p0(i64 8, ptr %16) #14
  call void @llvm.lifetime.end.p0(i64 4, ptr %15) #14
  call void @llvm.lifetime.end.p0(i64 4, ptr %14) #14
  call void @llvm.lifetime.end.p0(i64 4, ptr %13) #14
  call void @llvm.lifetime.end.p0(i64 4, ptr %12) #14
  call void @llvm.lifetime.end.p0(i64 4, ptr %11) #14
  call void @llvm.lifetime.end.p0(i64 8, ptr %8) #14
  call void @_ZN2cv5utils5trace7details6RegionD2Ev(ptr noundef nonnull align 8 dereferenceable(12) %7) #14
  call void @llvm.lifetime.end.p0(i64 16, ptr %7) #14
  ret void

107:                                              ; preds = %105, %93
  call void @llvm.lifetime.end.p0(i64 8, ptr %8) #14
  call void @_ZN2cv5utils5trace7details6RegionD2Ev(ptr noundef nonnull align 8 dereferenceable(12) %7) #14
  call void @llvm.lifetime.end.p0(i64 16, ptr %7) #14
  br label %108

108:                                              ; preds = %107
  %109 = load ptr, ptr %9, align 8
  %110 = load i32, ptr %10, align 4
  %111 = insertvalue { ptr, i32 } poison, ptr %109, 0
  %112 = insertvalue { ptr, i32 } %111, i32 %110, 1
  resume { ptr, i32 } %112
}