; Function Attrs: mustprogress uwtable
define hidden void @_ZN2cv3hal12cpu_baseline6exp32fEPKfPfi(ptr noundef readonly captures(none) %0, ptr noundef writeonly captures(none) %1, i32 noundef %2) local_unnamed_addr #6 personality ptr @__gxx_personality_v0 {
  %4 = alloca %"class.cv::utils::trace::details::Region", align 8
  call void @llvm.lifetime.start.p0(i64 16, ptr nonnull %4) #12
  call void @_ZN2cv5utils5trace7details6RegionC1ERKNS3_21LocationStaticStorageE(ptr noundef nonnull align 8 dereferenceable(12) %4, ptr noundef nonnull align 8 dereferenceable(32) @_ZZN2cv3hal12cpu_baseline6exp32fEPKfPfiE25__cv_trace_location_fn514)
  %5 = invoke noundef ptr @_ZN2cv7details12getExpTab32fEv()
          to label %.preheader unwind label %35

.preheader:                                       ; preds = %3
  %6 = icmp sgt i32 %2, 0
  br i1 %6, label %.lr.ph.preheader, label %._crit_edge

.lr.ph.preheader:                                 ; preds = %.preheader
  %wide.trip.count = zext nneg i32 %2 to i64
  br label %.lr.ph

.lr.ph:                                           ; preds = %.lr.ph.preheader, %.lr.ph
  %indvars.iv = phi i64 [ 0, %.lr.ph.preheader ], [ %indvars.iv.next, %.lr.ph ]
  %7 = getelementptr inbounds nuw %union.Cv32suf, ptr %0, i64 %indvars.iv
  %8 = load float, ptr %7, align 4, !tbaa !31
  %9 = fcmp olt float %8, 0xC0A03EE220000000
  %.sroa.speculated25 = select i1 %9, float 0xC0A03EE220000000, float %8
  %10 = fcmp ogt float %.sroa.speculated25, 0x40A03EE220000000
  %.sroa.speculated = select i1 %10, float 0x40A03EE220000000, float %.sroa.speculated25
  %11 = fmul float %.sroa.speculated, 0x4057154760000000
  %12 = insertelement <4 x float> poison, float %11, i64 0
  %13 = call noundef i32 @llvm.x86.sse.cvtss2si(<4 x float> %12)
  %14 = sitofp i32 %13 to float
  %15 = fsub float %11, %14
  %16 = fmul float %15, 1.562500e-02
  %17 = ashr i32 %13, 6
  %18 = add nsw i32 %17, 127
  %.not = icmp ult i32 %18, 256
  %19 = icmp slt i32 %17, -127
  %20 = select i1 %19, i32 0, i32 255
  %21 = select i1 %.not, i32 %18, i32 %20
  %22 = shl nuw nsw i32 %21, 23
  %23 = bitcast i32 %22 to float
  %24 = and i32 %13, 63
  %25 = zext nneg i32 %24 to i64
  %26 = getelementptr inbounds nuw float, ptr %5, i64 %25
  %27 = load float, ptr %26, align 4, !tbaa !3
  %28 = fmul float %27, %23
  %29 = fadd float %16, 0x4016F547A0000000
  %30 = call float @llvm.fmuladd.f32(float %29, float %16, float 0x4038D76C80000000)
  %31 = call float @llvm.fmuladd.f32(float %30, float %16, float 0x4051EB5AC0000000)
  %32 = call float @llvm.fmuladd.f32(float %31, float %16, float 0x4059DA2740000000)
  %33 = fmul float %28, %32
  %34 = getelementptr inbounds nuw float, ptr %1, i64 %indvars.iv
  store float %33, ptr %34, align 4, !tbaa !3
  %indvars.iv.next = add nuw nsw i64 %indvars.iv, 1
  %exitcond.not = icmp eq i64 %indvars.iv.next, %wide.trip.count
  br i1 %exitcond.not, label %._crit_edge, label %.lr.ph, !llvm.loop !32

35:                                               ; preds = %3
  %36 = landingpad { ptr, i32 }
          cleanup
  call void @_ZN2cv5utils5trace7details6RegionD2Ev(ptr noundef nonnull align 8 dereferenceable(12) %4) #12
  call void @llvm.lifetime.end.p0(i64 16, ptr nonnull %4) #12
  resume { ptr, i32 } %36

._crit_edge:                                      ; preds = %.lr.ph, %.preheader
  %37 = getelementptr inbounds nuw i8, ptr %4, i64 8
  %38 = load i32, ptr %37, align 8, !tbaa !9
  %.not.i = icmp eq i32 %38, 0
  br i1 %.not.i, label %_ZN2cv5utils5trace7details6RegionD2Ev.exit, label %39

39:                                               ; preds = %._crit_edge
  invoke void @_ZN2cv5utils5trace7details6Region7destroyEv(ptr noundef nonnull align 8 dereferenceable(12) %4)
          to label %_ZN2cv5utils5trace7details6RegionD2Ev.exit unwind label %40

40:                                               ; preds = %39
  %41 = landingpad { ptr, i32 }
          catch ptr null
  %42 = extractvalue { ptr, i32 } %41, 0
  call void @__clang_call_terminate(ptr %42) #13
  unreachable

_ZN2cv5utils5trace7details6RegionD2Ev.exit:       ; preds = %._crit_edge, %39
  call void @llvm.lifetime.end.p0(i64 16, ptr nonnull %4) #12
  ret void
}